; Function Attrs: mustprogress uwtable
define hidden noundef ptr @_ZNK7datalog14bound_relation5cloneEv(ptr noundef nonnull align 8 dereferenceable(136) %0) unnamed_addr #3 align 2 {
  %2 = load ptr, ptr %0, align 8, !tbaa !17
  %3 = getelementptr inbounds nuw i8, ptr %2, i64 24
  %4 = load ptr, ptr %3, align 8
  %5 = tail call noundef zeroext i1 %4(ptr noundef nonnull align 8 dereferenceable(136) %0)
  %6 = getelementptr inbounds nuw i8, ptr %0, i64 8
  %7 = load ptr, ptr %6, align 8, !tbaa !54
  %8 = tail call ptr @__dynamic_cast(ptr nonnull %7, ptr nonnull @_ZTIN7datalog15relation_pluginE, ptr nonnull @_ZTIN7datalog21bound_relation_pluginE, i64 0) #24
  %9 = icmp eq ptr %8, null
  br i1 %5, label %10, label %20

10:                                               ; preds = %1
  br i1 %9, label %11, label %_ZNK7datalog14bound_relation10get_pluginEv.exit

11:                                               ; preds = %10
  tail call void @__cxa_bad_cast() #25
  unreachable

_ZNK7datalog14bound_relation10get_pluginEv.exit:  ; preds = %10
  %12 = getelementptr inbounds nuw i8, ptr %0, i64 16
  %13 = load ptr, ptr %8, align 8, !tbaa !17
  %14 = getelementptr inbounds nuw i8, ptr %13, i64 40
  %15 = load ptr, ptr %14, align 8
  %16 = tail call noundef ptr %15(ptr noundef nonnull align 8 dereferenceable(128) %8, ptr noundef nonnull align 8 dereferenceable(8) %12)
  %17 = icmp eq ptr %16, null
  br i1 %17, label %_ZN7datalog21bound_relation_plugin3getEPNS_13relation_baseE.exit, label %18

18:                                               ; preds = %_ZNK7datalog14bound_relation10get_pluginEv.exit
  %19 = tail call ptr @__dynamic_cast(ptr nonnull readonly %16, ptr nonnull @_ZTIN7datalog13relation_baseE, ptr nonnull @_ZTIN7datalog14bound_relationE, i64 0) #24
  br label %_ZN7datalog21bound_relation_plugin3getEPNS_13relation_baseE.exit

20:                                               ; preds = %1
  br i1 %9, label %21, label %_ZNK7datalog14bound_relation10get_pluginEv.exit3

21:                                               ; preds = %20
  tail call void @__cxa_bad_cast() #25
  unreachable

_ZNK7datalog14bound_relation10get_pluginEv.exit3: ; preds = %20
  %22 = getelementptr inbounds nuw i8, ptr %0, i64 16
  %23 = load ptr, ptr %8, align 8, !tbaa !17
  %24 = getelementptr inbounds nuw i8, ptr %23, i64 64
  %25 = load ptr, ptr %24, align 8
  %26 = tail call noundef ptr %25(ptr noundef nonnull align 8 dereferenceable(128) %8, ptr noundef null, ptr noundef nonnull align 8 dereferenceable(8) %22)
  %27 = icmp ne ptr %26, null
  tail call void @llvm.assume(i1 %27)
  %28 = tail call ptr @__dynamic_cast(ptr nonnull readonly %26, ptr nonnull @_ZTIN7datalog13relation_baseE, ptr nonnull @_ZTIN7datalog14bound_relationE, i64 0) #24
  tail call void @_ZN7datalog15vector_relationINS_9uint_set2ENS_21bound_relation_helperEE4copyERKS3_(ptr noundef nonnull align 8 dereferenceable(128) %28, ptr noundef nonnull align 8 dereferenceable(128) %0)
  br label %_ZN7datalog21bound_relation_plugin3getEPNS_13relation_baseE.exit

_ZN7datalog21bound_relation_plugin3getEPNS_13relation_baseE.exit: ; preds = %18, %_ZNK7datalog14bound_relation10get_pluginEv.exit, %_ZNK7datalog14bound_relation10get_pluginEv.exit3
  %.0 = phi ptr [ %28, %_ZNK7datalog14bound_relation10get_pluginEv.exit3 ], [ %19, %18 ], [ null, %_ZNK7datalog14bound_relation10get_pluginEv.exit ]
  ret ptr %.0
}